target datalayout = "e-m:e-p270:32:32-p271:32:32-p272:64:64-i64:64-i128:128-f80:128-n8:16:32:64-S128"
target triple = "x86_64-pc-linux-gnu"

%union.pthread_mutex_t = type { %struct.__pthread_mutex_s }
%struct.__pthread_mutex_s = type { i32, i32, i32, i32, i32, i16, i16, %struct.__pthread_internal_list }
%struct.__pthread_internal_list = type { ptr, ptr }
%struct._stritem = type { ptr, ptr, ptr, i32, i32, i32, i16, i16, i8, i8, [0 x %union.anon] }
%union.anon = type { i64 }

@lru_locks = external global [256 x %union.pthread_mutex_t], align 16
@heads = internal global [256 x ptr] zeroinitializer, align 16
@.str = private unnamed_addr constant [25 x i8] c"ITEM %s [%d b; %llu s]\0D\0A\00", align 1
@process_started = external global i64, align 8
@.str.1 = private unnamed_addr constant [6 x i8] c"END\0D\0A\00", align 1

; Function Attrs: nounwind uwtable
define dso_local ptr @item_cachedump(i32 noundef %0, i32 noundef %1, ptr noundef %2) #0 {
  %4 = alloca ptr, align 8
  %5 = alloca i32, align 4
  %6 = alloca i32, align 4
  %7 = alloca ptr, align 8
  %8 = alloca i32, align 4
  %9 = alloca ptr, align 8
  %10 = alloca i32, align 4
  %11 = alloca ptr, align 8
  %12 = alloca i32, align 4
  %13 = alloca i32, align 4
  %14 = alloca [251 x i8], align 16
  %15 = alloca [512 x i8], align 16
  %16 = alloca i32, align 4
  %17 = alloca i32, align 4
  store i32 %0, ptr %5, align 4, !tbaa !4
  store i32 %1, ptr %6, align 4, !tbaa !4
  store ptr %2, ptr %7, align 8, !tbaa !79
  call void @llvm.lifetime.start.p0(i64 4, ptr %8) #9
  store i32 2097152, ptr %8, align 4, !tbaa !4
  call void @llvm.lifetime.start.p0(i64 8, ptr %9) #9
  call void @llvm.lifetime.start.p0(i64 4, ptr %10) #9
  call void @llvm.lifetime.start.p0(i64 8, ptr %11) #9
  call void @llvm.lifetime.start.p0(i64 4, ptr %12) #9
  call void @llvm.lifetime.start.p0(i64 4, ptr %13) #9
  store i32 0, ptr %13, align 4, !tbaa !4
  call void @llvm.lifetime.start.p0(i64 251, ptr %14) #9
  call void @llvm.lifetime.start.p0(i64 512, ptr %15) #9
  call void @llvm.lifetime.start.p0(i64 4, ptr %16) #9
  %18 = load i32, ptr %5, align 4, !tbaa !4
  store i32 %18, ptr %16, align 4, !tbaa !4
  %19 = load i32, ptr %16, align 4, !tbaa !4
  %20 = or i32 %19, 128
  store i32 %20, ptr %16, align 4, !tbaa !4
  %21 = load i32, ptr %16, align 4, !tbaa !4
  %22 = zext i32 %21 to i64
  %23 = getelementptr inbounds nuw [256 x %union.pthread_mutex_t], ptr @lru_locks, i64 0, i64 %22
  %24 = call i32 @pthread_mutex_lock(ptr noundef %23) #9
  %25 = load i32, ptr %16, align 4, !tbaa !4
  %26 = zext i32 %25 to i64
  %27 = getelementptr inbounds nuw [256 x ptr], ptr @heads, i64 0, i64 %26
  %28 = load ptr, ptr %27, align 8, !tbaa !16
  store ptr %28, ptr %11, align 8, !tbaa !16
  %29 = load i32, ptr %8, align 4, !tbaa !4
  %30 = zext i32 %29 to i64
  %31 = call noalias ptr @malloc(i64 noundef %30) #10
  store ptr %31, ptr %9, align 8, !tbaa !65
  %32 = load ptr, ptr %9, align 8, !tbaa !65
  %33 = icmp eq ptr %32, null
  br i1 %33, label %34, label %39

34:                                               ; preds = %3
  %35 = load i32, ptr %16, align 4, !tbaa !4
  %36 = zext i32 %35 to i64
  %37 = getelementptr inbounds nuw [256 x %union.pthread_mutex_t], ptr @lru_locks, i64 0, i64 %36
  %38 = call i32 @pthread_mutex_unlock(ptr noundef %37) #9
  store ptr null, ptr %4, align 8
  store i32 1, ptr %17, align 4
  br label %156

39:                                               ; preds = %3
  store i32 0, ptr %10, align 4, !tbaa !4
  br label %40

40:                                               ; preds = %126, %72, %39
  %41 = load ptr, ptr %11, align 8, !tbaa !16
  %42 = icmp ne ptr %41, null
  br i1 %42, label %43, label %52

43:                                               ; preds = %40
  %44 = load i32, ptr %6, align 4, !tbaa !4
  %45 = icmp eq i32 %44, 0
  br i1 %45, label %50, label %46

46:                                               ; preds = %43
  %47 = load i32, ptr %13, align 4, !tbaa !4
  %48 = load i32, ptr %6, align 4, !tbaa !4
  %49 = icmp ult i32 %47, %48
  br label %50

50:                                               ; preds = %46, %43
  %51 = phi i1 [ true, %43 ], [ %49, %46 ]
  br label %52

52:                                               ; preds = %50, %40
  %53 = phi i1 [ false, %40 ], [ %51, %50 ]
  br i1 %53, label %54, label %142

54:                                               ; preds = %52
  %55 = load ptr, ptr %11, align 8, !tbaa !16
  %56 = getelementptr inbounds nuw %struct._stritem, ptr %55, i32 0, i32 5
  %57 = load i32, ptr %56, align 8, !tbaa !4
  %58 = icmp eq i32 %57, 0
  br i1 %58, label %59, label %65

59:                                               ; preds = %54
  %60 = load ptr, ptr %11, align 8, !tbaa !16
  %61 = getelementptr inbounds nuw %struct._stritem, ptr %60, i32 0, i32 9
  %62 = load i8, ptr %61, align 1, !tbaa !30
  %63 = zext i8 %62 to i32
  %64 = icmp eq i32 %63, 0
  br i1 %64, label %72, label %65

65:                                               ; preds = %59, %54
  %66 = load ptr, ptr %11, align 8, !tbaa !16
  %67 = getelementptr inbounds nuw %struct._stritem, ptr %66, i32 0, i32 7
  %68 = load i16, ptr %67, align 2, !tbaa !34
  %69 = zext i16 %68 to i32
  %70 = and i32 %69, 4096
  %71 = icmp ne i32 %70, 0
  br i1 %71, label %72, label %76

72:                                               ; preds = %65, %59
  %73 = load ptr, ptr %11, align 8, !tbaa !16
  %74 = getelementptr inbounds nuw %struct._stritem, ptr %73, i32 0, i32 0
  %75 = load ptr, ptr %74, align 8, !tbaa !16
  store ptr %75, ptr %11, align 8, !tbaa !16
  br label %40, !llvm.loop !83

76:                                               ; preds = %65
  %77 = getelementptr inbounds [251 x i8], ptr %14, i64 0, i64 0
  %78 = load ptr, ptr %11, align 8, !tbaa !16
  %79 = getelementptr inbounds nuw %struct._stritem, ptr %78, i32 0, i32 10
  %80 = load ptr, ptr %11, align 8, !tbaa !16
  %81 = getelementptr inbounds nuw %struct._stritem, ptr %80, i32 0, i32 7
  %82 = load i16, ptr %81, align 2, !tbaa !34
  %83 = zext i16 %82 to i32
  %84 = and i32 %83, 2
  %85 = icmp ne i32 %84, 0
  %86 = select i1 %85, i64 8, i64 0
  %87 = getelementptr inbounds nuw i8, ptr %79, i64 %86
  %88 = load ptr, ptr %11, align 8, !tbaa !16
  %89 = getelementptr inbounds nuw %struct._stritem, ptr %88, i32 0, i32 9
  %90 = load i8, ptr %89, align 1, !tbaa !30
  %91 = zext i8 %90 to i64
  %92 = call ptr @strncpy(ptr noundef %77, ptr noundef %87, i64 noundef %91) #9
  %93 = load ptr, ptr %11, align 8, !tbaa !16
  %94 = getelementptr inbounds nuw %struct._stritem, ptr %93, i32 0, i32 9
  %95 = load i8, ptr %94, align 1, !tbaa !30
  %96 = zext i8 %95 to i64
  %97 = getelementptr inbounds nuw [251 x i8], ptr %14, i64 0, i64 %96
  store i8 0, ptr %97, align 1, !tbaa !30
  %98 = getelementptr inbounds [512 x i8], ptr %15, i64 0, i64 0
  %99 = getelementptr inbounds [251 x i8], ptr %14, i64 0, i64 0
  %100 = load ptr, ptr %11, align 8, !tbaa !16
  %101 = getelementptr inbounds nuw %struct._stritem, ptr %100, i32 0, i32 5
  %102 = load i32, ptr %101, align 8, !tbaa !4
  %103 = sub nsw i32 %102, 2
  %104 = load ptr, ptr %11, align 8, !tbaa !16
  %105 = getelementptr inbounds nuw %struct._stritem, ptr %104, i32 0, i32 4
  %106 = load i32, ptr %105, align 4, !tbaa !4
  %107 = icmp eq i32 %106, 0
  br i1 %107, label %108, label %109

108:                                              ; preds = %76
  br label %116

109:                                              ; preds = %76
  %110 = load ptr, ptr %11, align 8, !tbaa !16
  %111 = getelementptr inbounds nuw %struct._stritem, ptr %110, i32 0, i32 4
  %112 = load i32, ptr %111, align 4, !tbaa !4
  %113 = zext i32 %112 to i64
  %114 = load i64, ptr @process_started, align 8, !tbaa !10
  %115 = add i64 %113, %114
  br label %116

116:                                              ; preds = %109, %108
  %117 = phi i64 [ 0, %108 ], [ %115, %109 ]
  %118 = call i32 (ptr, i64, ptr, ...) @snprintf(ptr noundef %98, i64 noundef 512, ptr noundef @.str, ptr noundef %99, i32 noundef %103, i64 noundef %117) #9
  store i32 %118, ptr %12, align 4, !tbaa !4
  %119 = load i32, ptr %10, align 4, !tbaa !4
  %120 = load i32, ptr %12, align 4, !tbaa !4
  %121 = add i32 %119, %120
  %122 = add i32 %121, 6
  %123 = load i32, ptr %8, align 4, !tbaa !4
  %124 = icmp ugt i32 %122, %123
  br i1 %124, label %125, label %126

125:                                              ; preds = %116
  br label %142

126:                                              ; preds = %116
  %127 = load ptr, ptr %9, align 8, !tbaa !65
  %128 = load i32, ptr %10, align 4, !tbaa !4
  %129 = zext i32 %128 to i64
  %130 = getelementptr inbounds nuw i8, ptr %127, i64 %129
  %131 = getelementptr inbounds [512 x i8], ptr %15, i64 0, i64 0
  %132 = load i32, ptr %12, align 4, !tbaa !4
  %133 = zext i32 %132 to i64
  call void @llvm.memcpy.p0.p0.i64(ptr align 1 %130, ptr align 16 %131, i64 %133, i1 false)
  %134 = load i32, ptr %12, align 4, !tbaa !4
  %135 = load i32, ptr %10, align 4, !tbaa !4
  %136 = add i32 %135, %134
  store i32 %136, ptr %10, align 4, !tbaa !4
  %137 = load i32, ptr %13, align 4, !tbaa !4
  %138 = add i32 %137, 1
  store i32 %138, ptr %13, align 4, !tbaa !4
  %139 = load ptr, ptr %11, align 8, !tbaa !16
  %140 = getelementptr inbounds nuw %struct._stritem, ptr %139, i32 0, i32 0
  %141 = load ptr, ptr %140, align 8, !tbaa !16
  store ptr %141, ptr %11, align 8, !tbaa !16
  br label %40, !llvm.loop !83

142:                                              ; preds = %125, %52
  %143 = load ptr, ptr %9, align 8, !tbaa !65
  %144 = load i32, ptr %10, align 4, !tbaa !4
  %145 = zext i32 %144 to i64
  %146 = getelementptr inbounds nuw i8, ptr %143, i64 %145
  call void @llvm.memcpy.p0.p0.i64(ptr align 1 %146, ptr align 1 @.str.1, i64 6, i1 false)
  %147 = load i32, ptr %10, align 4, !tbaa !4
  %148 = add i32 %147, 5
  store i32 %148, ptr %10, align 4, !tbaa !4
  %149 = load i32, ptr %10, align 4, !tbaa !4
  %150 = load ptr, ptr %7, align 8, !tbaa !79
  store i32 %149, ptr %150, align 4, !tbaa !4
  %151 = load i32, ptr %16, align 4, !tbaa !4
  %152 = zext i32 %151 to i64
  %153 = getelementptr inbounds nuw [256 x %union.pthread_mutex_t], ptr @lru_locks, i64 0, i64 %152
  %154 = call i32 @pthread_mutex_unlock(ptr noundef %153) #9
  %155 = load ptr, ptr %9, align 8, !tbaa !65
  store ptr %155, ptr %4, align 8
  store i32 1, ptr %17, align 4
  br label %156

156:                                              ; preds = %142, %34
  call void @llvm.lifetime.end.p0(i64 4, ptr %16) #9
  call void @llvm.lifetime.end.p0(i64 512, ptr %15) #9
  call void @llvm.lifetime.end.p0(i64 251, ptr %14) #9
  call void @llvm.lifetime.end.p0(i64 4, ptr %13) #9
  call void @llvm.lifetime.end.p0(i64 4, ptr %12) #9
  call void @llvm.lifetime.end.p0(i64 8, ptr %11) #9
  call void @llvm.lifetime.end.p0(i64 4, ptr %10) #9
  call void @llvm.lifetime.end.p0(i64 8, ptr %9) #9
  call void @llvm.lifetime.end.p0(i64 4, ptr %8) #9
  %157 = load ptr, ptr %4, align 8
  ret ptr %157
}