; Function Attrs: nounwind uwtable
define dso_local noalias noundef ptr @item_cachedump(i32 noundef %0, i32 noundef %1, ptr noundef writeonly captures(none) %2) local_unnamed_addr #0 {
  %4 = alloca [251 x i8], align 16
  %5 = alloca [512 x i8], align 16
  call void @llvm.lifetime.start.p0(i64 251, ptr nonnull %4) #19
  call void @llvm.lifetime.start.p0(i64 512, ptr nonnull %5) #19
  %6 = or i32 %0, 128
  %7 = zext i32 %6 to i64
  %8 = getelementptr inbounds nuw [256 x %union.pthread_mutex_t], ptr @lru_locks, i64 0, i64 %7
  %9 = tail call i32 @pthread_mutex_lock(ptr noundef nonnull %8) #19
  %10 = tail call noalias dereferenceable_or_null(2097152) ptr @malloc(i64 noundef 2097152) #20
  %11 = icmp eq ptr %10, null
  br i1 %11, label %14, label %.preheader

.preheader:                                       ; preds = %3
  %12 = getelementptr inbounds nuw [256 x ptr], ptr @heads, i64 0, i64 %7
  %13 = add i32 %1, -1
  %.0405264 = load ptr, ptr %12, align 8, !tbaa !28
  %.not5365 = icmp eq ptr %.0405264, null
  br i1 %.not5365, label %.critedge, label %.lr.ph.split.preheader

14:                                               ; preds = %3
  %15 = tail call i32 @pthread_mutex_unlock(ptr noundef nonnull %8) #19
  br label %63

.lr.ph.split:                                     ; preds = %.lr.ph.split.preheader, %28
  %.04055 = phi ptr [ %.040, %28 ], [ %.0405269, %.lr.ph.split.preheader ]
  %16 = getelementptr inbounds nuw i8, ptr %.04055, i64 32
  %17 = load i32, ptr %16, align 8, !tbaa !22
  %18 = icmp eq i32 %17, 0
  br i1 %18, label %19, label %23

19:                                               ; preds = %.lr.ph.split
  %20 = getelementptr inbounds nuw i8, ptr %.04055, i64 41
  %21 = load i8, ptr %20, align 1, !tbaa !30
  %22 = icmp eq i8 %21, 0
  br i1 %22, label %28, label %23

23:                                               ; preds = %19, %.lr.ph.split
  %24 = getelementptr inbounds nuw i8, ptr %.04055, i64 38
  %25 = load i16, ptr %24, align 2, !tbaa !31
  %26 = zext i16 %25 to i32
  %27 = and i32 %26, 4096
  %.not45 = icmp eq i32 %27, 0
  br i1 %.not45, label %.split, label %28

28:                                               ; preds = %23, %19
  %.040 = load ptr, ptr %.04055, align 8, !tbaa !28
  %.not = icmp eq ptr %.040, null
  br i1 %.not, label %.critedge, label %.lr.ph.split, !llvm.loop !76

.split:                                           ; preds = %23
  %29 = getelementptr inbounds nuw i8, ptr %.04055, i64 32
  %30 = getelementptr inbounds nuw i8, ptr %.04055, i64 48
  %31 = shl nuw nsw i32 %26, 2
  %32 = and i32 %31, 8
  %33 = zext nneg i32 %32 to i64
  %34 = getelementptr inbounds nuw i8, ptr %30, i64 %33
  %35 = getelementptr inbounds nuw i8, ptr %.04055, i64 41
  %36 = load i8, ptr %35, align 1, !tbaa !30
  %37 = zext i8 %36 to i64
  %38 = call ptr @strncpy(ptr noundef nonnull %4, ptr noundef nonnull %34, i64 noundef %37) #19
  %39 = load i8, ptr %35, align 1, !tbaa !30
  %40 = zext i8 %39 to i64
  %41 = getelementptr inbounds nuw [251 x i8], ptr %4, i64 0, i64 %40
  store i8 0, ptr %41, align 1, !tbaa !30
  %42 = load i32, ptr %29, align 8, !tbaa !22
  %43 = add nsw i32 %42, -2
  %44 = getelementptr inbounds nuw i8, ptr %.04055, i64 28
  %45 = load i32, ptr %44, align 4, !tbaa !22
  %46 = icmp eq i32 %45, 0
  %47 = zext i32 %45 to i64
  %48 = load i64, ptr @process_started, align 8
  %49 = add i64 %48, %47
  %50 = select i1 %46, i64 0, i64 %49
  %51 = call i32 (ptr, i64, ptr, ...) @snprintf(ptr noundef nonnull dereferenceable(1) %5, i64 noundef 512, ptr noundef nonnull @.str, ptr noundef nonnull %4, i32 noundef %43, i64 noundef %50) #19
  %52 = add i32 %51, %.041.ph66
  %53 = add i32 %52, -2097147
  %54 = icmp ult i32 %53, -2097153
  br i1 %54, label %.critedge, label %.outer

.outer:                                           ; preds = %.split
  %55 = zext i32 %.041.ph66 to i64
  %56 = getelementptr inbounds nuw i8, ptr %10, i64 %55
  %57 = zext i32 %51 to i64
  call void @llvm.memcpy.p0.p0.i64(ptr nonnull align 1 %56, ptr nonnull align 16 %5, i64 %57, i1 false)
  %58 = add i32 %.0.ph67, 1
  %.not44 = icmp ult i32 %13, %58
  %.04052 = load ptr, ptr %.04055, align 8, !tbaa !28
  %.not53 = icmp eq ptr %.04052, null
  %or.cond54 = select i1 %.not53, i1 true, i1 %.not44
  br i1 %or.cond54, label %.critedge, label %.lr.ph.split.preheader, !llvm.loop !76

.lr.ph.split.preheader:                           ; preds = %.preheader, %.outer
  %.0405269 = phi ptr [ %.04052, %.outer ], [ %.0405264, %.preheader ]
  %.0.ph67 = phi i32 [ %58, %.outer ], [ 0, %.preheader ]
  %.041.ph66 = phi i32 [ %52, %.outer ], [ 0, %.preheader ]
  br label %.lr.ph.split

.critedge:                                        ; preds = %.split, %.outer, %28, %.preheader
  %.041.ph51 = phi i32 [ 0, %.preheader ], [ %.041.ph66, %28 ], [ %.041.ph66, %.split ], [ %52, %.outer ]
  %59 = zext i32 %.041.ph51 to i64
  %60 = getelementptr inbounds nuw i8, ptr %10, i64 %59
  call void @llvm.memcpy.p0.p0.i64(ptr noundef nonnull align 1 dereferenceable(6) %60, ptr noundef nonnull align 1 dereferenceable(6) @.str.1, i64 6, i1 false)
  %61 = add i32 %.041.ph51, 5
  store i32 %61, ptr %2, align 4, !tbaa !22
  %62 = call i32 @pthread_mutex_unlock(ptr noundef nonnull %8) #19
  br label %63

63:                                               ; preds = %.critedge, %14
  call void @llvm.lifetime.end.p0(i64 512, ptr nonnull %5) #19
  call void @llvm.lifetime.end.p0(i64 251, ptr nonnull %4) #19
  ret ptr %10
}